; Function Attrs: mustprogress uwtable
define void @_ZN3gmx25AnalysisDataModuleManager25dataPropertyAboutToChangeENS0_12DataPropertyEb(ptr noundef nonnull readonly align 8 captures(none) dereferenceable(8) %0, i32 noundef %1, i1 noundef zeroext %2) local_unnamed_addr #2 align 2 {
  %4 = zext i1 %2 to i8
  %5 = load ptr, ptr %0, align 8, !tbaa !71
  %6 = getelementptr inbounds nuw i8, ptr %5, i64 32
  %7 = load i32, ptr %6, align 8, !tbaa !19
  %8 = icmp eq i32 %7, 0
  br i1 %8, label %10, label %9

9:                                                ; preds = %3
  tail call void @_ZN3gmx8internal13assertHandlerEPKcS2_S2_S2_i(ptr noundef nonnull @.str.10, ptr noundef nonnull @.str.11, ptr noundef nonnull @"__PRETTY_FUNCTION__._ZZN3gmx25AnalysisDataModuleManager25dataPropertyAboutToChangeENS0_12DataPropertyEbENK3$_0clEv", ptr noundef nonnull @.str.1, i32 noundef 261) #20
  unreachable

10:                                               ; preds = %3
  %11 = getelementptr inbounds nuw i8, ptr %5, i64 24
  %12 = zext i32 %1 to i64
  %13 = getelementptr inbounds nuw [3 x i8], ptr %11, i64 0, i64 %12
  %14 = load i8, ptr %13, align 1, !tbaa !59, !range !60, !noundef !61
  %.not = icmp eq i8 %14, %4
  br i1 %.not, label %26, label %15

15:                                               ; preds = %10
  %16 = load ptr, ptr %5, align 8, !tbaa !77
  %17 = getelementptr inbounds nuw i8, ptr %5, i64 8
  %18 = load ptr, ptr %17, align 8, !tbaa !77
  %.not1213 = icmp eq ptr %16, %18
  br i1 %.not1213, label %._crit_edge, label %.lr.ph

.lr.ph:                                           ; preds = %15, %.lr.ph
  %.sroa.08.014 = phi ptr [ %20, %.lr.ph ], [ %16, %15 ]
  %19 = load ptr, ptr %.sroa.08.014, align 8, !tbaa !78
  tail call void @_ZN3gmx25AnalysisDataModuleManager4Impl19checkModulePropertyERKNS_19IAnalysisDataModuleENS0_12DataPropertyEb(ptr noundef nonnull align 8 dereferenceable(8) %19, i32 noundef %1, i1 noundef zeroext %2)
  %20 = getelementptr inbounds nuw i8, ptr %.sroa.08.014, i64 24
  %21 = load ptr, ptr %0, align 8, !tbaa !71
  %22 = getelementptr inbounds nuw i8, ptr %21, i64 8
  %23 = load ptr, ptr %22, align 8, !tbaa !77
  %.not12 = icmp eq ptr %20, %23
  br i1 %.not12, label %._crit_edge, label %.lr.ph, !llvm.loop !81

._crit_edge:                                      ; preds = %.lr.ph, %15
  %.lcssa = phi ptr [ %5, %15 ], [ %21, %.lr.ph ]
  %24 = getelementptr inbounds nuw i8, ptr %.lcssa, i64 24
  %25 = getelementptr inbounds nuw [3 x i8], ptr %24, i64 0, i64 %12
  store i8 %4, ptr %25, align 1, !tbaa !59
  br label %26

26:                                               ; preds = %._crit_edge, %10
  ret void
}